; Function Attrs: mustprogress uwtable
define dso_local void @_ZN20cmCTestUploadHandler10InitializeEv(ptr noundef nonnull align 8 dereferenceable(336) %0) unnamed_addr #3 align 2 personality ptr @__gxx_personality_v0 {
  tail call void @_ZN21cmCTestGenericHandler10InitializeEv(ptr noundef nonnull align 8 dereferenceable(284) %0)
  %2 = getelementptr inbounds i8, ptr %0, i64 288
  %3 = getelementptr inbounds i8, ptr %0, i64 304
  %4 = load ptr, ptr %3, align 8
  invoke void @_ZNSt8_Rb_treeINSt7__cxx1112basic_stringIcSt11char_traitsIcESaIcEEES5_St9_IdentityIS5_ESt4lessIS5_ESaIS5_EE8_M_eraseEPSt13_Rb_tree_nodeIS5_E(ptr noundef nonnull align 8 dereferenceable(48) %2, ptr noundef %4)
          to label %_ZNSt3setINSt7__cxx1112basic_stringIcSt11char_traitsIcESaIcEEESt4lessIS5_ESaIS5_EE5clearEv.exit unwind label %5

5:                                                ; preds = %1
  %6 = landingpad { ptr, i32 }
          catch ptr null
  %7 = extractvalue { ptr, i32 } %6, 0
  tail call void @__clang_call_terminate(ptr %7) #13
  unreachable

_ZNSt3setINSt7__cxx1112basic_stringIcSt11char_traitsIcESaIcEEESt4lessIS5_ESaIS5_EE5clearEv.exit: ; preds = %1
  %8 = getelementptr inbounds i8, ptr %0, i64 296
  store ptr null, ptr %3, align 8
  %9 = getelementptr inbounds i8, ptr %0, i64 312
  store ptr %8, ptr %9, align 8
  %10 = getelementptr inbounds i8, ptr %0, i64 320
  store ptr %8, ptr %10, align 8
  %11 = getelementptr inbounds i8, ptr %0, i64 328
  store i64 0, ptr %11, align 8
  ret void
}